(lp0
(S'cppflags'
p1
ccopy_reg
_reconstructor
p2
(cino.utils
SpaceList
p3
c__builtin__
list
p4
(lp5
S'-mmcu=atmega2560'
p6
aS'-DF_CPU=16000000L'
p7
aS'-DARDUINO=105'
p8
aS'-I/usr/share/arduino/hardware/arduino/cores/arduino'
p9
aS'-ffunction-sections'
p10
aS'-fdata-sections'
p11
aS'-g'
p12
aS'-Os'
p13
aS'-w'
p14
aS'-I/usr/share/arduino/hardware/arduino/variants/mega'
p15
aS'-I/usr/share/arduino/libraries/Wire'
p16
aS'-I/usr/share/arduino/libraries/Wire/utility'
p17
aS'-I/usr/share/arduino/hardware/arduino/cores/arduino'
p18
aS'-I/usr/share/arduino/hardware/arduino/cores/arduino/avr-libc'
p19
atp20
Rp21
tp22
a(S'cxx'
p23
S'/usr/share/arduino/hardware/tools/avr/bin/avr-g++'
p24
tp25
a(S'arduino_libraries_dir'
p26
S'/usr/share/arduino/libraries'
p27
tp28
a(S'avrdude'
p29
S'/usr/share/arduino/hardware/tools/avrdude'
p30
tp31
a(S'ar'
p32
S'/usr/share/arduino/hardware/tools/avr/bin/avr-ar'
p33
tp34
a(S'names'
p35
(dp36
S'cpp'
p37
S'%s.cpp'
p38
sS'obj'
p39
S'%s.o'
p40
sS'lib'
p41
S'lib%s.a'
p42
sS'deps'
p43
S'%s.d'
p44
stp45
a(S'ldflags'
p46
g2
(g3
g4
(lp47
g6
aS'-Wl,-L/home/jaruiz/telemetry/arduino/bma180/lib'
p48
atp49
Rp50
tp51
a(S'arduino_lib_version'
p52
g2
(cino.environment
Version
p53
c__builtin__
tuple
p54
(I1
I0
I5
tp55
tp56
Rp57
tp58
a(S'objcopy'
p59
S'/usr/share/arduino/hardware/tools/avr/bin/avr-objcopy'
p60
tp61
a(S'board_models'
p62
cino.environment
BoardModels
p63
((lp64
(lp65
S'uno'
p66
a(dp67
S'_coredir'
p68
S'/usr/share/arduino/hardware/arduino'
p69
sS'bootloader'
p70
(dp71
S'extended_fuses'
p72
S'0x05'
p73
sS'high_fuses'
p74
S'0xde'
p75
sS'low_fuses'
p76
S'0xff'
p77
sS'lock_bits'
p78
S'0x0F'
p79
sS'file'
p80
S'optiboot_atmega328.hex'
p81
sS'path'
p82
S'optiboot'
p83
sS'unlock_bits'
p84
S'0x3F'
p85
ssS'build'
p86
(dp87
S'core'
p88
S'arduino'
p89
sS'mcu'
p90
S'atmega328p'
p91
sS'f_cpu'
p92
S'16000000L'
p93
sS'variant'
p94
S'standard'
p95
ssS'name'
p96
S'Arduino Uno'
p97
sS'upload'
p98
(dp99
S'protocol'
p100
S'arduino'
p101
sS'maximum_size'
p102
S'32256'
p103
sS'speed'
p104
S'115200'
p105
ssaa(lp106
S'atmega328'
p107
a(dp108
g68
S'/usr/share/arduino/hardware/arduino'
p109
sS'bootloader'
p110
(dp111
S'extended_fuses'
p112
S'0x05'
p113
sS'high_fuses'
p114
S'0xDA'
p115
sS'low_fuses'
p116
S'0xFF'
p117
sS'lock_bits'
p118
S'0x0F'
p119
sS'file'
p120
S'ATmegaBOOT_168_atmega328.hex'
p121
sS'path'
p122
S'atmega'
p123
sS'unlock_bits'
p124
S'0x3F'
p125
ssS'build'
p126
(dp127
S'core'
p128
S'arduino'
p129
sS'mcu'
p130
S'atmega328p'
p131
sS'f_cpu'
p132
S'16000000L'
p133
sS'variant'
p134
S'standard'
p135
ssS'name'
p136
S'Arduino Duemilanove w/ ATmega328'
p137
sS'upload'
p138
(dp139
S'protocol'
p140
S'arduino'
p141
sS'maximum_size'
p142
S'30720'
p143
sS'speed'
p144
S'57600'
p145
ssaa(lp146
S'diecimila'
p147
a(dp148
g68
S'/usr/share/arduino/hardware/arduino'
p149
sS'bootloader'
p150
(dp151
S'extended_fuses'
p152
S'0x00'
p153
sS'high_fuses'
p154
S'0xdd'
p155
sS'low_fuses'
p156
S'0xff'
p157
sS'lock_bits'
p158
S'0x0F'
p159
sS'file'
p160
S'ATmegaBOOT_168_diecimila.hex'
p161
sS'path'
p162
S'atmega'
p163
sS'unlock_bits'
p164
S'0x3F'
p165
ssS'build'
p166
(dp167
S'core'
p168
S'arduino'
p169
sS'mcu'
p170
S'atmega168'
p171
sS'f_cpu'
p172
S'16000000L'
p173
sS'variant'
p174
S'standard'
p175
ssS'name'
p176
S'Arduino Diecimila or Duemilanove w/ ATmega168'
p177
sS'upload'
p178
(dp179
S'protocol'
p180
S'arduino'
p181
sS'maximum_size'
p182
S'14336'
p183
sS'speed'
p184
S'19200'
p185
ssaa(lp186
S'nano328'
p187
a(dp188
g68
S'/usr/share/arduino/hardware/arduino'
p189
sS'bootloader'
p190
(dp191
S'extended_fuses'
p192
S'0x05'
p193
sS'high_fuses'
p194
S'0xDA'
p195
sS'low_fuses'
p196
S'0xFF'
p197
sS'lock_bits'
p198
S'0x0F'
p199
sS'file'
p200
S'ATmegaBOOT_168_atmega328.hex'
p201
sS'path'
p202
S'atmega'
p203
sS'unlock_bits'
p204
S'0x3F'
p205
ssS'build'
p206
(dp207
S'core'
p208
S'arduino'
p209
sS'mcu'
p210
S'atmega328p'
p211
sS'f_cpu'
p212
S'16000000L'
p213
sS'variant'
p214
S'eightanaloginputs'
p215
ssS'name'
p216
S'Arduino Nano w/ ATmega328'
p217
sS'upload'
p218
(dp219
S'protocol'
p220
S'arduino'
p221
sS'maximum_size'
p222
S'30720'
p223
sS'speed'
p224
S'57600'
p225
ssaa(lp226
S'nano'
p227
a(dp228
g68
S'/usr/share/arduino/hardware/arduino'
p229
sS'bootloader'
p230
(dp231
S'extended_fuses'
p232
S'0x00'
p233
sS'high_fuses'
p234
S'0xdd'
p235
sS'low_fuses'
p236
S'0xff'
p237
sS'lock_bits'
p238
S'0x0F'
p239
sS'file'
p240
S'ATmegaBOOT_168_diecimila.hex'
p241
sS'path'
p242
S'atmega'
p243
sS'unlock_bits'
p244
S'0x3F'
p245
ssS'build'
p246
(dp247
S'core'
p248
S'arduino'
p249
sS'mcu'
p250
S'atmega168'
p251
sS'f_cpu'
p252
S'16000000L'
p253
sS'variant'
p254
S'eightanaloginputs'
p255
ssS'name'
p256
S'Arduino Nano w/ ATmega168'
p257
sS'upload'
p258
(dp259
S'protocol'
p260
S'arduino'
p261
sS'maximum_size'
p262
S'14336'
p263
sS'speed'
p264
S'19200'
p265
ssaa(lp266
S'mega2560'
p267
a(dp268
g68
S'/usr/share/arduino/hardware/arduino'
p269
sS'bootloader'
p270
(dp271
S'extended_fuses'
p272
S'0xFD'
p273
sS'high_fuses'
p274
S'0xD8'
p275
sS'low_fuses'
p276
S'0xFF'
p277
sS'lock_bits'
p278
S'0x0F'
p279
sS'file'
p280
S'stk500boot_v2_mega2560.hex'
p281
sS'path'
p282
S'stk500v2'
p283
sS'unlock_bits'
p284
S'0x3F'
p285
ssS'build'
p286
(dp287
S'core'
p288
S'arduino'
p289
sS'mcu'
p290
S'atmega2560'
p291
sS'f_cpu'
p292
S'16000000L'
p293
sS'variant'
p294
S'mega'
p295
ssS'name'
p296
S'Arduino Mega 2560 or Mega ADK'
p297
sS'upload'
p298
(dp299
S'protocol'
p300
S'wiring'
p301
sS'maximum_size'
p302
S'258048'
p303
sS'speed'
p304
S'115200'
p305
ssaa(lp306
S'mega'
p307
a(dp308
g68
S'/usr/share/arduino/hardware/arduino'
p309
sS'bootloader'
p310
(dp311
S'extended_fuses'
p312
S'0xF5'
p313
sS'high_fuses'
p314
S'0xDA'
p315
sS'low_fuses'
p316
S'0xFF'
p317
sS'lock_bits'
p318
S'0x0F'
p319
sS'file'
p320
S'ATmegaBOOT_168_atmega1280.hex'
p321
sS'path'
p322
S'atmega'
p323
sS'unlock_bits'
p324
S'0x3F'
p325
ssS'build'
p326
(dp327
S'core'
p328
S'arduino'
p329
sS'mcu'
p330
S'atmega1280'
p331
sS'f_cpu'
p332
S'16000000L'
p333
sS'variant'
p334
S'mega'
p335
ssS'name'
p336
S'Arduino Mega (ATmega1280)'
p337
sS'upload'
p338
(dp339
S'protocol'
p340
S'arduino'
p341
sS'maximum_size'
p342
S'126976'
p343
sS'speed'
p344
S'57600'
p345
ssaa(lp346
S'leonardo'
p347
a(dp348
g68
S'/usr/share/arduino/hardware/arduino'
p349
sS'bootloader'
p350
(dp351
S'extended_fuses'
p352
S'0xcb'
p353
sS'high_fuses'
p354
S'0xd8'
p355
sS'low_fuses'
p356
S'0xff'
p357
sS'lock_bits'
p358
S'0x2F'
p359
sS'file'
p360
S'Caterina-Leonardo.hex'
p361
sS'path'
p362
S'caterina'
p363
sS'unlock_bits'
p364
S'0x3F'
p365
ssS'build'
p366
(dp367
S'core'
p368
S'arduino'
p369
sS'f_cpu'
p370
S'16000000L'
p371
sS'vid'
p372
S'0x2341'
p373
sS'pid'
p374
S'0x8036'
p375
sS'variant'
p376
S'leonardo'
p377
sS'mcu'
p378
S'atmega32u4'
p379
ssS'name'
p380
S'Arduino Leonardo'
p381
sS'upload'
p382
(dp383
S'protocol'
p384
S'avr109'
p385
sS'maximum_size'
p386
S'28672'
p387
sS'speed'
p388
S'57600'
p389
sS'disable_flushing'
p390
S'true'
p391
ssaa(lp392
S'esplora'
p393
a(dp394
g68
S'/usr/share/arduino/hardware/arduino'
p395
sS'bootloader'
p396
(dp397
S'extended_fuses'
p398
S'0xcb'
p399
sS'high_fuses'
p400
S'0xd8'
p401
sS'low_fuses'
p402
S'0xff'
p403
sS'lock_bits'
p404
S'0x2F'
p405
sS'file'
p406
S'Caterina-Esplora.hex'
p407
sS'path'
p408
S'caterina'
p409
sS'unlock_bits'
p410
S'0x3F'
p411
ssS'build'
p412
(dp413
S'core'
p414
S'arduino'
p415
sS'f_cpu'
p416
S'16000000L'
p417
sS'vid'
p418
S'0x2341'
p419
sS'pid'
p420
S'0x803C'
p421
sS'variant'
p422
S'leonardo'
p423
sS'mcu'
p424
S'atmega32u4'
p425
ssS'name'
p426
S'Arduino Esplora'
p427
sS'upload'
p428
(dp429
S'protocol'
p430
S'avr109'
p431
sS'maximum_size'
p432
S'28672'
p433
sS'speed'
p434
S'57600'
p435
sS'disable_flushing'
p436
S'true'
p437
ssaa(lp438
S'micro'
p439
a(dp440
g68
S'/usr/share/arduino/hardware/arduino'
p441
sS'bootloader'
p442
(dp443
S'extended_fuses'
p444
S'0xcb'
p445
sS'high_fuses'
p446
S'0xd8'
p447
sS'low_fuses'
p448
S'0xff'
p449
sS'lock_bits'
p450
S'0x2F'
p451
sS'file'
p452
S'Caterina-Micro.hex'
p453
sS'path'
p454
S'caterina'
p455
sS'unlock_bits'
p456
S'0x3F'
p457
ssS'build'
p458
(dp459
S'core'
p460
S'arduino'
p461
sS'f_cpu'
p462
S'16000000L'
p463
sS'vid'
p464
S'0x2341'
p465
sS'pid'
p466
S'0x8037'
p467
sS'variant'
p468
S'micro'
p469
sS'mcu'
p470
S'atmega32u4'
p471
ssS'name'
p472
S'Arduino Micro'
p473
sS'upload'
p474
(dp475
S'protocol'
p476
S'avr109'
p477
sS'maximum_size'
p478
S'28672'
p479
sS'speed'
p480
S'57600'
p481
sS'disable_flushing'
p482
S'true'
p483
ssaa(lp484
S'mini328'
p485
a(dp486
g68
S'/usr/share/arduino/hardware/arduino'
p487
sS'bootloader'
p488
(dp489
S'extended_fuses'
p490
S'0x05'
p491
sS'high_fuses'
p492
S'0xd8'
p493
sS'low_fuses'
p494
S'0xff'
p495
sS'lock_bits'
p496
S'0x0F'
p497
sS'file'
p498
S'optiboot_atmega328-Mini.hex'
p499
sS'path'
p500
S'optiboot'
p501
sS'unlock_bits'
p502
S'0x3F'
p503
ssS'build'
p504
(dp505
S'core'
p506
S'arduino'
p507
sS'mcu'
p508
S'atmega328p'
p509
sS'f_cpu'
p510
S'16000000L'
p511
sS'variant'
p512
S'eightanaloginputs'
p513
ssS'name'
p514
S'Arduino Mini w/ ATmega328'
p515
sS'upload'
p516
(dp517
S'protocol'
p518
S'arduino'
p519
sS'maximum_size'
p520
S'28672'
p521
sS'speed'
p522
S'115200'
p523
ssaa(lp524
S'mini'
p525
a(dp526
g68
S'/usr/share/arduino/hardware/arduino'
p527
sS'bootloader'
p528
(dp529
S'extended_fuses'
p530
S'0x00'
p531
sS'high_fuses'
p532
S'0xdd'
p533
sS'low_fuses'
p534
S'0xff'
p535
sS'lock_bits'
p536
S'0x0F'
p537
sS'file'
p538
S'ATmegaBOOT_168_ng.hex'
p539
sS'path'
p540
S'atmega'
p541
sS'unlock_bits'
p542
S'0x3F'
p543
ssS'build'
p544
(dp545
S'core'
p546
S'arduino'
p547
sS'mcu'
p548
S'atmega168'
p549
sS'f_cpu'
p550
S'16000000L'
p551
sS'variant'
p552
S'eightanaloginputs'
p553
ssS'name'
p554
S'Arduino Mini w/ ATmega168'
p555
sS'upload'
p556
(dp557
S'protocol'
p558
S'arduino'
p559
sS'maximum_size'
p560
S'14336'
p561
sS'speed'
p562
S'19200'
p563
ssaa(lp564
S'ethernet'
p565
a(dp566
g68
S'/usr/share/arduino/hardware/arduino'
p567
sS'bootloader'
p568
(dp569
S'extended_fuses'
p570
S'0x05'
p571
sS'high_fuses'
p572
S'0xde'
p573
sS'low_fuses'
p574
S'0xff'
p575
sS'lock_bits'
p576
S'0x0F'
p577
sS'file'
p578
S'optiboot_atmega328.hex'
p579
sS'path'
p580
S'optiboot'
p581
sS'unlock_bits'
p582
S'0x3F'
p583
ssS'build'
p584
(dp585
S'variant'
p586
S'standard'
p587
sS'mcu'
p588
S'atmega328p'
p589
sS'f_cpu'
p590
S'16000000L'
p591
sS'core'
p592
S'arduino'
p593
ssS'name'
p594
S'Arduino Ethernet'
p595
sS'upload'
p596
(dp597
S'protocol'
p598
S'arduino'
p599
sS'maximum_size'
p600
S'32256'
p601
sS'speed'
p602
S'115200'
p603
ssaa(lp604
S'fio'
p605
a(dp606
g68
S'/usr/share/arduino/hardware/arduino'
p607
sS'bootloader'
p608
(dp609
S'extended_fuses'
p610
S'0x05'
p611
sS'high_fuses'
p612
S'0xDA'
p613
sS'low_fuses'
p614
S'0xFF'
p615
sS'lock_bits'
p616
S'0x0F'
p617
sS'file'
p618
S'ATmegaBOOT_168_atmega328_pro_8MHz.hex'
p619
sS'path'
p620
S'arduino:atmega'
p621
sS'unlock_bits'
p622
S'0x3F'
p623
ssS'build'
p624
(dp625
S'core'
p626
S'arduino'
p627
sS'mcu'
p628
S'atmega328p'
p629
sS'f_cpu'
p630
S'8000000L'
p631
sS'variant'
p632
S'eightanaloginputs'
p633
ssS'name'
p634
S'Arduino Fio'
p635
sS'upload'
p636
(dp637
S'protocol'
p638
S'arduino'
p639
sS'maximum_size'
p640
S'30720'
p641
sS'speed'
p642
S'57600'
p643
ssaa(lp644
S'bt328'
p645
a(dp646
g68
S'/usr/share/arduino/hardware/arduino'
p647
sS'bootloader'
p648
(dp649
S'extended_fuses'
p650
S'0x05'
p651
sS'high_fuses'
p652
S'0xd8'
p653
sS'low_fuses'
p654
S'0xff'
p655
sS'lock_bits'
p656
S'0x0F'
p657
sS'file'
p658
S'ATmegaBOOT_168_atmega328_bt.hex'
p659
sS'path'
p660
S'bt'
p661
sS'unlock_bits'
p662
S'0x3F'
p663
ssS'build'
p664
(dp665
S'core'
p666
S'arduino'
p667
sS'mcu'
p668
S'atmega328p'
p669
sS'f_cpu'
p670
S'16000000L'
p671
sS'variant'
p672
S'eightanaloginputs'
p673
ssS'name'
p674
S'Arduino BT w/ ATmega328'
p675
sS'upload'
p676
(dp677
S'protocol'
p678
S'arduino'
p679
sS'maximum_size'
p680
S'28672'
p681
sS'speed'
p682
S'19200'
p683
sS'disable_flushing'
p684
S'true'
p685
ssaa(lp686
S'bt'
p687
a(dp688
g68
S'/usr/share/arduino/hardware/arduino'
p689
sS'bootloader'
p690
(dp691
S'extended_fuses'
p692
S'0x00'
p693
sS'high_fuses'
p694
S'0xdd'
p695
sS'low_fuses'
p696
S'0xff'
p697
sS'lock_bits'
p698
S'0x0F'
p699
sS'file'
p700
S'ATmegaBOOT_168.hex'
p701
sS'path'
p702
S'bt'
p703
sS'unlock_bits'
p704
S'0x3F'
p705
ssS'build'
p706
(dp707
S'core'
p708
S'arduino'
p709
sS'mcu'
p710
S'atmega168'
p711
sS'f_cpu'
p712
S'16000000L'
p713
sS'variant'
p714
S'eightanaloginputs'
p715
ssS'name'
p716
S'Arduino BT w/ ATmega168'
p717
sS'upload'
p718
(dp719
S'protocol'
p720
S'arduino'
p721
sS'maximum_size'
p722
S'14336'
p723
sS'speed'
p724
S'19200'
p725
sS'disable_flushing'
p726
S'true'
p727
ssaa(lp728
S'LilyPadUSB'
p729
a(dp730
g68
S'/usr/share/arduino/hardware/arduino'
p731
sS'bootloader'
p732
(dp733
S'extended_fuses'
p734
S'0xce'
p735
sS'high_fuses'
p736
S'0xd8'
p737
sS'low_fuses'
p738
S'0xff'
p739
sS'lock_bits'
p740
S'0x2F'
p741
sS'file'
p742
S'Caterina-LilyPadUSB.hex'
p743
sS'path'
p744
S'caterina-LilyPadUSB'
p745
sS'unlock_bits'
p746
S'0x3F'
p747
ssS'build'
p748
(dp749
S'core'
p750
S'arduino'
p751
sS'f_cpu'
p752
S'8000000L'
p753
sS'vid'
p754
S'0x1B4F'
p755
sS'pid'
p756
S'0x9208'
p757
sS'variant'
p758
S'leonardo'
p759
sS'mcu'
p760
S'atmega32u4'
p761
ssS'name'
p762
S'LilyPad Arduino USB'
p763
sS'upload'
p764
(dp765
S'protocol'
p766
S'avr109'
p767
sS'maximum_size'
p768
S'28672'
p769
sS'speed'
p770
S'57600'
p771
sS'disable_flushing'
p772
S'true'
p773
ssaa(lp774
S'lilypad328'
p775
a(dp776
g68
S'/usr/share/arduino/hardware/arduino'
p777
sS'bootloader'
p778
(dp779
S'extended_fuses'
p780
S'0x05'
p781
sS'high_fuses'
p782
S'0xDA'
p783
sS'low_fuses'
p784
S'0xFF'
p785
sS'lock_bits'
p786
S'0x0F'
p787
sS'file'
p788
S'ATmegaBOOT_168_atmega328_pro_8MHz.hex'
p789
sS'path'
p790
S'atmega'
p791
sS'unlock_bits'
p792
S'0x3F'
p793
ssS'build'
p794
(dp795
S'core'
p796
S'arduino'
p797
sS'mcu'
p798
S'atmega328p'
p799
sS'f_cpu'
p800
S'8000000L'
p801
sS'variant'
p802
S'standard'
p803
ssS'name'
p804
S'LilyPad Arduino w/ ATmega328'
p805
sS'upload'
p806
(dp807
S'protocol'
p808
S'arduino'
p809
sS'maximum_size'
p810
S'30720'
p811
sS'speed'
p812
S'57600'
p813
ssaa(lp814
S'lilypad'
p815
a(dp816
g68
S'/usr/share/arduino/hardware/arduino'
p817
sS'bootloader'
p818
(dp819
S'extended_fuses'
p820
S'0x00'
p821
sS'high_fuses'
p822
S'0xdd'
p823
sS'low_fuses'
p824
S'0xe2'
p825
sS'lock_bits'
p826
S'0x0F'
p827
sS'file'
p828
S'LilyPadBOOT_168.hex'
p829
sS'path'
p830
S'lilypad'
p831
sS'unlock_bits'
p832
S'0x3F'
p833
ssS'build'
p834
(dp835
S'core'
p836
S'arduino'
p837
sS'mcu'
p838
S'atmega168'
p839
sS'f_cpu'
p840
S'8000000L'
p841
sS'variant'
p842
S'standard'
p843
ssS'name'
p844
S'LilyPad Arduino w/ ATmega168'
p845
sS'upload'
p846
(dp847
S'protocol'
p848
S'arduino'
p849
sS'maximum_size'
p850
S'14336'
p851
sS'speed'
p852
S'19200'
p853
ssaa(lp854
S'pro5v328'
p855
a(dp856
g68
S'/usr/share/arduino/hardware/arduino'
p857
sS'bootloader'
p858
(dp859
S'extended_fuses'
p860
S'0x05'
p861
sS'high_fuses'
p862
S'0xDA'
p863
sS'low_fuses'
p864
S'0xFF'
p865
sS'lock_bits'
p866
S'0x0F'
p867
sS'file'
p868
S'ATmegaBOOT_168_atmega328.hex'
p869
sS'path'
p870
S'atmega'
p871
sS'unlock_bits'
p872
S'0x3F'
p873
ssS'build'
p874
(dp875
S'core'
p876
S'arduino'
p877
sS'mcu'
p878
S'atmega328p'
p879
sS'f_cpu'
p880
S'16000000L'
p881
sS'variant'
p882
S'standard'
p883
ssS'name'
p884
S'Arduino Pro or Pro Mini (5V, 16 MHz) w/ ATmega328'
p885
sS'upload'
p886
(dp887
S'protocol'
p888
S'arduino'
p889
sS'maximum_size'
p890
S'30720'
p891
sS'speed'
p892
S'57600'
p893
ssaa(lp894
S'pro5v'
p895
a(dp896
g68
S'/usr/share/arduino/hardware/arduino'
p897
sS'bootloader'
p898
(dp899
S'extended_fuses'
p900
S'0x00'
p901
sS'high_fuses'
p902
S'0xdd'
p903
sS'low_fuses'
p904
S'0xff'
p905
sS'lock_bits'
p906
S'0x0F'
p907
sS'file'
p908
S'ATmegaBOOT_168_diecimila.hex'
p909
sS'path'
p910
S'atmega'
p911
sS'unlock_bits'
p912
S'0x3F'
p913
ssS'build'
p914
(dp915
S'core'
p916
S'arduino'
p917
sS'mcu'
p918
S'atmega168'
p919
sS'f_cpu'
p920
S'16000000L'
p921
sS'variant'
p922
S'standard'
p923
ssS'name'
p924
S'Arduino Pro or Pro Mini (5V, 16 MHz) w/ ATmega168'
p925
sS'upload'
p926
(dp927
S'protocol'
p928
S'arduino'
p929
sS'maximum_size'
p930
S'14336'
p931
sS'speed'
p932
S'19200'
p933
ssaa(lp934
S'pro328'
p935
a(dp936
g68
S'/usr/share/arduino/hardware/arduino'
p937
sS'bootloader'
p938
(dp939
S'extended_fuses'
p940
S'0x05'
p941
sS'high_fuses'
p942
S'0xDA'
p943
sS'low_fuses'
p944
S'0xFF'
p945
sS'lock_bits'
p946
S'0x0F'
p947
sS'file'
p948
S'ATmegaBOOT_168_atmega328_pro_8MHz.hex'
p949
sS'path'
p950
S'atmega'
p951
sS'unlock_bits'
p952
S'0x3F'
p953
ssS'build'
p954
(dp955
S'core'
p956
S'arduino'
p957
sS'mcu'
p958
S'atmega328p'
p959
sS'f_cpu'
p960
S'8000000L'
p961
sS'variant'
p962
S'standard'
p963
ssS'name'
p964
S'Arduino Pro or Pro Mini (3.3V, 8 MHz) w/ ATmega328'
p965
sS'upload'
p966
(dp967
S'protocol'
p968
S'arduino'
p969
sS'maximum_size'
p970
S'30720'
p971
sS'speed'
p972
S'57600'
p973
ssaa(lp974
S'pro'
p975
a(dp976
g68
S'/usr/share/arduino/hardware/arduino'
p977
sS'bootloader'
p978
(dp979
S'extended_fuses'
p980
S'0x00'
p981
sS'high_fuses'
p982
S'0xdd'
p983
sS'low_fuses'
p984
S'0xc6'
p985
sS'lock_bits'
p986
S'0x0F'
p987
sS'file'
p988
S'ATmegaBOOT_168_pro_8MHz.hex'
p989
sS'path'
p990
S'atmega'
p991
sS'unlock_bits'
p992
S'0x3F'
p993
ssS'build'
p994
(dp995
S'core'
p996
S'arduino'
p997
sS'mcu'
p998
S'atmega168'
p999
sS'f_cpu'
p1000
S'8000000L'
p1001
sS'variant'
p1002
S'standard'
p1003
ssS'name'
p1004
S'Arduino Pro or Pro Mini (3.3V, 8 MHz) w/ ATmega168'
p1005
sS'upload'
p1006
(dp1007
S'protocol'
p1008
S'arduino'
p1009
sS'maximum_size'
p1010
S'14336'
p1011
sS'speed'
p1012
S'19200'
p1013
ssaa(lp1014
S'atmega168'
p1015
a(dp1016
g68
S'/usr/share/arduino/hardware/arduino'
p1017
sS'bootloader'
p1018
(dp1019
S'extended_fuses'
p1020
S'0x00'
p1021
sS'high_fuses'
p1022
S'0xdd'
p1023
sS'low_fuses'
p1024
S'0xff'
p1025
sS'lock_bits'
p1026
S'0x0F'
p1027
sS'file'
p1028
S'ATmegaBOOT_168_ng.hex'
p1029
sS'path'
p1030
S'atmega'
p1031
sS'unlock_bits'
p1032
S'0x3F'
p1033
ssS'build'
p1034
(dp1035
S'core'
p1036
S'arduino'
p1037
sS'mcu'
p1038
S'atmega168'
p1039
sS'f_cpu'
p1040
S'16000000L'
p1041
sS'variant'
p1042
S'standard'
p1043
ssS'name'
p1044
S'Arduino NG or older w/ ATmega168'
p1045
sS'upload'
p1046
(dp1047
S'protocol'
p1048
S'arduino'
p1049
sS'maximum_size'
p1050
S'14336'
p1051
sS'speed'
p1052
S'19200'
p1053
ssaa(lp1054
S'atmega8'
p1055
a(dp1056
g68
S'/usr/share/arduino/hardware/arduino'
p1057
sS'bootloader'
p1058
(dp1059
S'high_fuses'
p1060
S'0xca'
p1061
sS'low_fuses'
p1062
S'0xdf'
p1063
sS'lock_bits'
p1064
S'0x0F'
p1065
sS'file'
p1066
S'ATmegaBOOT-prod-firmware-2009-11-07.hex'
p1067
sS'path'
p1068
S'atmega8'
p1069
sS'unlock_bits'
p1070
S'0x3F'
p1071
ssS'build'
p1072
(dp1073
S'core'
p1074
S'arduino'
p1075
sS'mcu'
p1076
S'atmega8'
p1077
sS'f_cpu'
p1078
S'16000000L'
p1079
sS'variant'
p1080
S'standard'
p1081
ssS'name'
p1082
S'Arduino NG or older w/ ATmega8'
p1083
sS'upload'
p1084
(dp1085
S'protocol'
p1086
S'arduino'
p1087
sS'maximum_size'
p1088
S'7168'
p1089
sS'speed'
p1090
S'19200'
p1091
ssaa(lp1092
S'robotControl'
p1093
a(dp1094
g68
S'/usr/share/arduino/hardware/arduino'
p1095
sS'bootloader'
p1096
(dp1097
S'extended_fuses'
p1098
S'0xcb'
p1099
sS'high_fuses'
p1100
S'0xd8'
p1101
sS'low_fuses'
p1102
S'0xff'
p1103
sS'lock_bits'
p1104
S'0x2F'
p1105
sS'file'
p1106
S'Caterina-Robot-Control.hex'
p1107
sS'path'
p1108
S'caterina-Arduino_Robot'
p1109
sS'unlock_bits'
p1110
S'0x3F'
p1111
ssS'build'
p1112
(dp1113
S'core'
p1114
S'robot'
p1115
sS'f_cpu'
p1116
S'16000000L'
p1117
sS'vid'
p1118
S'0x2341'
p1119
sS'pid'
p1120
S'0x8038'
p1121
sS'variant'
p1122
S'robot_control'
p1123
sS'mcu'
p1124
S'atmega32u4'
p1125
ssS'name'
p1126
S'Arduino Robot Control'
p1127
sS'upload'
p1128
(dp1129
S'protocol'
p1130
S'avr109'
p1131
sS'maximum_size'
p1132
S'28672'
p1133
sS'speed'
p1134
S'57600'
p1135
sS'disable_flushing'
p1136
S'true'
p1137
ssaa(lp1138
S'robotMotor'
p1139
a(dp1140
g68
S'/usr/share/arduino/hardware/arduino'
p1141
sS'bootloader'
p1142
(dp1143
S'extended_fuses'
p1144
S'0xcb'
p1145
sS'high_fuses'
p1146
S'0xd8'
p1147
sS'low_fuses'
p1148
S'0xff'
p1149
sS'lock_bits'
p1150
S'0x2F'
p1151
sS'file'
p1152
S'Caterina-Robot-Motor.hex'
p1153
sS'path'
p1154
S'caterina-Arduino_Robot'
p1155
sS'unlock_bits'
p1156
S'0x3F'
p1157
ssS'build'
p1158
(dp1159
S'core'
p1160
S'robot'
p1161
sS'f_cpu'
p1162
S'16000000L'
p1163
sS'vid'
p1164
S'0x2341'
p1165
sS'pid'
p1166
S'0x8039'
p1167
sS'variant'
p1168
S'robot_motor'
p1169
sS'mcu'
p1170
S'atmega32u4'
p1171
ssS'name'
p1172
S'Arduino Robot Motor'
p1173
sS'upload'
p1174
(dp1175
S'protocol'
p1176
S'avr109'
p1177
sS'maximum_size'
p1178
S'28672'
p1179
sS'speed'
p1180
S'57600'
p1181
sS'disable_flushing'
p1182
S'true'
p1183
ssaatp1184
Rp1185
(dp1186
S'default'
p1187
S'uno'
p1188
sbtp1189
a(S'used_libs'
p1190
(lp1191
S'/usr/share/arduino/libraries/Wire'
p1192
aS'/usr/share/arduino/hardware/arduino/cores/arduino'
p1193
atp1194
a(S'make'
p1195
S'/usr/share/arduino/hardware/tools/avr/bin/make'
p1196
tp1197
a(S'build_dir'
p1198
S'.build/mega2560'
p1199
tp1200
a(S'cc'
p1201
S'/usr/share/arduino/hardware/tools/avr/bin/avr-gcc'
p1202
tp1203
a(S'cflags'
p1204
g2
(g3
g4
(lp1205
tp1206
Rp1207
tp1208
a(S'cxxflags'
p1209
g2
(g3
g4
(lp1210
S'-I/home/jaruiz/telemetry/arduino/bma180/lib'
p1211
atp1212
Rp1213
tp1214
a(S'arduino_variants_dir'
p1215
S'/usr/share/arduino/hardware/arduino/variants'
p1216
tp1217
a(S'stty'
p1218
S'/bin/stty'
p1219
tp1220
a(S'version.txt'
p1221
S'/usr/share/arduino/lib/version.txt'
p1222
tp1223
a(S'arduino_core_dir'
p1224
g1193
tp1225
a(S'boards.txt'
p1226
(lp1227
S'/usr/share/arduino/hardware/arduino/boards.txt'
p1228
atp1229
a(S'avrdude.conf'
p1230
S'/usr/share/arduino/hardware/tools/avrdude.conf'
p1231
tp1232
a(S'deps'
p1233
g2
(g3
g4
(lp1234
S'.build/mega2560/src/dependencies.d'
p1235
aS'.build/mega2560/arduino/dependencies.d'
p1236
aS'.build/mega2560/Wire/dependencies.d'
p1237
atp1238
Rp1239
tp1240
a.